; Function Attrs: nounwind uwtable
define internal fastcc void @dissect_IandM2_block(ptr noundef %0, i32 noundef %1, ptr noundef %2, ptr noundef %3, ptr noundef %4, i8 noundef zeroext %5, i8 noundef zeroext %6) unnamed_addr #0 {
  %8 = alloca ptr, align 8
  %9 = icmp ne i8 %5, 1
  %10 = icmp ne i8 %6, 0
  %or.cond = or i1 %9, %10
  br i1 %or.cond, label %11, label %15

11:                                               ; preds = %7
  %12 = zext i8 %6 to i32
  %13 = zext i8 %5 to i32
  %14 = tail call ptr (ptr, ptr, ptr, ptr, ...) @expert_add_info_format(ptr noundef %2, ptr noundef %4, ptr noundef nonnull @ei_pn_io_block_version, ptr noundef nonnull @.str.1317, i32 noundef %13, i32 noundef %12) #11
  br label %21

15:                                               ; preds = %7
  %16 = load i32, ptr @hf_pn_io_im_date, align 4
  %17 = getelementptr inbounds nuw i8, ptr %2, i64 408
  %18 = load ptr, ptr %17, align 8
  %19 = call ptr @proto_tree_add_item_ret_display_string(ptr noundef %3, i32 noundef %16, ptr noundef %0, i32 noundef %1, i32 noundef 16, i32 noundef 0, ptr noundef %18, ptr noundef nonnull %8) #11
  %20 = load ptr, ptr %8, align 8
  call void (ptr, ptr, ...) @proto_item_append_text(ptr noundef %4, ptr noundef nonnull @.str.1357, ptr noundef %20) #11
  br label %21

21:                                               ; preds = %15, %11
  ret void
}